target datalayout = "e-m:e-p270:32:32-p271:32:32-p272:64:64-i64:64-i128:128-f80:128-n8:16:32:64-S128"
target triple = "x86_64-pc-linux-gnu"

%struct.lua_TValue = type { %union.Value, [1 x i32], i32 }
%union.Value = type { ptr }

; Function Attrs: mustprogress nounwind uwtable
define internal noundef i32 @_ZL13luauF_arshiftP9lua_StateP10lua_TValueS2_iS2_i(ptr noundef %0, ptr noundef %1, ptr noundef %2, i32 noundef %3, ptr noundef %4, i32 noundef %5) #0 {
  %7 = alloca i32, align 4
  %8 = alloca ptr, align 8
  %9 = alloca ptr, align 8
  %10 = alloca ptr, align 8
  %11 = alloca i32, align 4
  %12 = alloca ptr, align 8
  %13 = alloca i32, align 4
  %14 = alloca double, align 8
  %15 = alloca double, align 8
  %16 = alloca i32, align 4
  %17 = alloca i32, align 4
  %18 = alloca i32, align 4
  %19 = alloca ptr, align 8
  %20 = alloca i32, align 4
  store ptr %0, ptr %8, align 8, !tbaa !4
  store ptr %1, ptr %9, align 8, !tbaa !9
  store ptr %2, ptr %10, align 8, !tbaa !9
  store i32 %3, ptr %11, align 4, !tbaa !11
  store ptr %4, ptr %12, align 8, !tbaa !9
  store i32 %5, ptr %13, align 4, !tbaa !11
  %21 = load i32, ptr %13, align 4, !tbaa !11
  %22 = icmp sge i32 %21, 2
  br i1 %22, label %23, label %65

23:                                               ; preds = %6
  %24 = load i32, ptr %11, align 4, !tbaa !11
  %25 = icmp sle i32 %24, 1
  br i1 %25, label %26, label %65

26:                                               ; preds = %23
  %27 = load ptr, ptr %10, align 8, !tbaa !9
  %28 = getelementptr inbounds nuw %struct.lua_TValue, ptr %27, i32 0, i32 2
  %29 = load i32, ptr %28, align 4, !tbaa !13
  %30 = icmp eq i32 %29, 3
  br i1 %30, label %31, label %65

31:                                               ; preds = %26
  %32 = load ptr, ptr %12, align 8, !tbaa !9
  %33 = getelementptr inbounds nuw %struct.lua_TValue, ptr %32, i32 0, i32 2
  %34 = load i32, ptr %33, align 4, !tbaa !13
  %35 = icmp eq i32 %34, 3
  br i1 %35, label %36, label %65

36:                                               ; preds = %31
  call void @llvm.lifetime.start.p0(i64 8, ptr %14) #17
  %37 = load ptr, ptr %10, align 8, !tbaa !9
  %38 = getelementptr inbounds nuw %struct.lua_TValue, ptr %37, i32 0, i32 0
  %39 = load double, ptr %38, align 8, !tbaa !15
  store double %39, ptr %14, align 8, !tbaa !16
  call void @llvm.lifetime.start.p0(i64 8, ptr %15) #17
  %40 = load ptr, ptr %12, align 8, !tbaa !9
  %41 = getelementptr inbounds nuw %struct.lua_TValue, ptr %40, i32 0, i32 0
  %42 = load double, ptr %41, align 8, !tbaa !15
  store double %42, ptr %15, align 8, !tbaa !16
  call void @llvm.lifetime.start.p0(i64 4, ptr %16) #17
  %43 = load double, ptr %14, align 8, !tbaa !16
  %44 = fptosi double %43 to i64
  %45 = trunc i64 %44 to i32
  store i32 %45, ptr %16, align 4, !tbaa !11
  call void @llvm.lifetime.start.p0(i64 4, ptr %17) #17
  %46 = load double, ptr %15, align 8, !tbaa !16
  %47 = fptosi double %46 to i32
  store i32 %47, ptr %17, align 4, !tbaa !11
  %48 = load i32, ptr %17, align 4, !tbaa !11
  %49 = icmp ult i32 %48, 32
  br i1 %49, label %50, label %61

50:                                               ; preds = %36
  call void @llvm.lifetime.start.p0(i64 4, ptr %18) #17
  %51 = load i32, ptr %16, align 4, !tbaa !11
  %52 = load i32, ptr %17, align 4, !tbaa !11
  %53 = ashr i32 %51, %52
  store i32 %53, ptr %18, align 4, !tbaa !11
  call void @llvm.lifetime.start.p0(i64 8, ptr %19) #17
  %54 = load ptr, ptr %9, align 8, !tbaa !9
  store ptr %54, ptr %19, align 8, !tbaa !9
  %55 = load i32, ptr %18, align 4, !tbaa !11
  %56 = uitofp i32 %55 to double
  %57 = load ptr, ptr %19, align 8, !tbaa !9
  %58 = getelementptr inbounds nuw %struct.lua_TValue, ptr %57, i32 0, i32 0
  store double %56, ptr %58, align 8, !tbaa !15
  %59 = load ptr, ptr %19, align 8, !tbaa !9
  %60 = getelementptr inbounds nuw %struct.lua_TValue, ptr %59, i32 0, i32 2
  store i32 3, ptr %60, align 4, !tbaa !13
  call void @llvm.lifetime.end.p0(i64 8, ptr %19) #17
  store i32 1, ptr %7, align 4
  store i32 1, ptr %20, align 4
  call void @llvm.lifetime.end.p0(i64 4, ptr %18) #17
  br label %62

61:                                               ; preds = %36
  store i32 0, ptr %20, align 4
  br label %62

62:                                               ; preds = %61, %50
  call void @llvm.lifetime.end.p0(i64 4, ptr %17) #17
  call void @llvm.lifetime.end.p0(i64 4, ptr %16) #17
  call void @llvm.lifetime.end.p0(i64 8, ptr %15) #17
  call void @llvm.lifetime.end.p0(i64 8, ptr %14) #17
  %63 = load i32, ptr %20, align 4
  switch i32 %63, label %68 [
    i32 0, label %64
    i32 1, label %66
  ]

64:                                               ; preds = %62
  br label %65

65:                                               ; preds = %64, %31, %26, %23, %6
  store i32 -1, ptr %7, align 4
  br label %66

66:                                               ; preds = %65, %62
  %67 = load i32, ptr %7, align 4
  ret i32 %67

68:                                               ; preds = %62
  unreachable
}